; Function Attrs: mustprogress uwtable
define noundef i32 @_ZN6icu_7519CollationRuleParser20parseTailoringStringEiRNS_13UnicodeStringER10UErrorCode(ptr nocapture noundef nonnull align 8 dereferenceable(76) %this, i32 noundef %i, ptr noundef nonnull align 8 dereferenceable(64) %raw, ptr nocapture noundef nonnull align 4 dereferenceable(4) %errorCode) local_unnamed_addr #1 align 2 {
entry:
  %rules.i = getelementptr inbounds i8, ptr %this, i64 16
  %0 = load ptr, ptr %rules.i, align 8
  %fUnion.i.i5.i = getelementptr inbounds i8, ptr %0, i64 8
  %1 = load i16, ptr %fUnion.i.i5.i, align 8
  %cmp.i.i6.i = icmp slt i16 %1, 0
  %2 = ashr i16 %1, 5
  %shr.i.i7.i = sext i16 %2 to i32
  %fLength.i8.i = getelementptr inbounds i8, ptr %0, i64 12
  %3 = load i32, ptr %fLength.i8.i, align 4
  %cond.i9.i = select i1 %cmp.i.i6.i, i32 %3, i32 %shr.i.i7.i
  %cmp10.i = icmp sgt i32 %cond.i9.i, %i
  br i1 %cmp10.i, label %land.rhs.preheader.i, label %_ZNK6icu_7519CollationRuleParser14skipWhiteSpaceEi.exit

land.rhs.preheader.i:                             ; preds = %entry
  %4 = sext i32 %i to i64
  br label %land.rhs.i

land.rhs.i:                                       ; preds = %while.body.i, %land.rhs.preheader.i
  %indvars.iv.i = phi i64 [ %4, %land.rhs.preheader.i ], [ %indvars.iv.next.i, %while.body.i ]
  %cond.i12.i = phi i32 [ %cond.i9.i, %land.rhs.preheader.i ], [ %cond.i.i, %while.body.i ]
  %5 = phi i16 [ %1, %land.rhs.preheader.i ], [ %12, %while.body.i ]
  %6 = phi ptr [ %0, %land.rhs.preheader.i ], [ %11, %while.body.i ]
  %i.addr.011.i = phi i32 [ %i, %land.rhs.preheader.i ], [ %inc.i, %while.body.i ]
  %7 = trunc i64 %indvars.iv.i to i32
  %cmp.i.i4.i = icmp ugt i32 %cond.i12.i, %7
  br i1 %cmp.i.i4.i, label %if.then.i.i.i, label %_ZNK6icu_7513UnicodeString6charAtEi.exit.i

if.then.i.i.i:                                    ; preds = %land.rhs.i
  %8 = and i16 %5, 2
  %tobool.not.i.i.i.i = icmp eq i16 %8, 0
  %fBuffer.i.i.i.i = getelementptr inbounds i8, ptr %6, i64 10
  %fArray.i.i.i.i = getelementptr inbounds i8, ptr %6, i64 24
  %9 = load ptr, ptr %fArray.i.i.i.i, align 8
  %cond.i2.i.i.i = select i1 %tobool.not.i.i.i.i, ptr %9, ptr %fBuffer.i.i.i.i
  %arrayidx.i.i.i = getelementptr inbounds i16, ptr %cond.i2.i.i.i, i64 %indvars.iv.i
  %10 = load i16, ptr %arrayidx.i.i.i, align 2
  br label %_ZNK6icu_7513UnicodeString6charAtEi.exit.i

_ZNK6icu_7513UnicodeString6charAtEi.exit.i:       ; preds = %if.then.i.i.i, %land.rhs.i
  %retval.0.i.i.i = phi i16 [ %10, %if.then.i.i.i ], [ -1, %land.rhs.i ]
  %conv.i = zext i16 %retval.0.i.i.i to i32
  %call4.i = tail call noundef signext i8 @_ZN6icu_7512PatternProps12isWhiteSpaceEi(i32 noundef %conv.i)
  %tobool.not.i = icmp eq i8 %call4.i, 0
  br i1 %tobool.not.i, label %_ZNK6icu_7519CollationRuleParser14skipWhiteSpaceEi.exit, label %while.body.i

while.body.i:                                     ; preds = %_ZNK6icu_7513UnicodeString6charAtEi.exit.i
  %indvars.iv.next.i = add nsw i64 %indvars.iv.i, 1
  %inc.i = add nsw i32 %i.addr.011.i, 1
  %11 = load ptr, ptr %rules.i, align 8
  %fUnion.i.i.i = getelementptr inbounds i8, ptr %11, i64 8
  %12 = load i16, ptr %fUnion.i.i.i, align 8
  %cmp.i.i.i = icmp slt i16 %12, 0
  %13 = ashr i16 %12, 5
  %shr.i.i.i = sext i16 %13 to i32
  %fLength.i.i = getelementptr inbounds i8, ptr %11, i64 12
  %14 = load i32, ptr %fLength.i.i, align 4
  %cond.i.i = select i1 %cmp.i.i.i, i32 %14, i32 %shr.i.i.i
  %15 = sext i32 %cond.i.i to i64
  %cmp.i = icmp slt i64 %indvars.iv.next.i, %15
  br i1 %cmp.i, label %land.rhs.i, label %_ZNK6icu_7519CollationRuleParser14skipWhiteSpaceEi.exit, !llvm.loop !10

_ZNK6icu_7519CollationRuleParser14skipWhiteSpaceEi.exit: ; preds = %_ZNK6icu_7513UnicodeString6charAtEi.exit.i, %while.body.i, %entry
  %i.addr.0.lcssa.i = phi i32 [ %i, %entry ], [ %7, %_ZNK6icu_7513UnicodeString6charAtEi.exit.i ], [ %inc.i, %while.body.i ]
  %call2 = tail call noundef i32 @_ZN6icu_7519CollationRuleParser11parseStringEiRNS_13UnicodeStringER10UErrorCode(ptr noundef nonnull align 8 dereferenceable(76) %this, i32 noundef %i.addr.0.lcssa.i, ptr noundef nonnull align 8 dereferenceable(64) %raw, ptr noundef nonnull align 4 dereferenceable(4) %errorCode)
  %16 = load i32, ptr %errorCode, align 4
  %cmp.i5 = icmp sgt i32 %16, 0
  %fUnion.i = getelementptr inbounds i8, ptr %raw, i64 8
  %17 = load i16, ptr %fUnion.i, align 8
  %cmp.i7 = icmp ugt i16 %17, 31
  %or.cond = select i1 %cmp.i5, i1 true, i1 %cmp.i7
  br i1 %or.cond, label %if.end, label %if.end.i

if.end.i:                                         ; preds = %_ZNK6icu_7519CollationRuleParser14skipWhiteSpaceEi.exit
  store i32 3, ptr %errorCode, align 4
  %errorReason.i = getelementptr inbounds i8, ptr %this, i64 48
  store ptr @.str.14, ptr %errorReason.i, align 8
  %parseError.i = getelementptr inbounds i8, ptr %this, i64 40
  %18 = load ptr, ptr %parseError.i, align 8
  %cmp.not.i = icmp eq ptr %18, null
  br i1 %cmp.not.i, label %if.end, label %if.then2.i

if.then2.i:                                       ; preds = %if.end.i
  tail call void @_ZN6icu_7519CollationRuleParser15setErrorContextEv(ptr noundef nonnull align 8 dereferenceable(76) %this)
  br label %if.end

if.end:                                           ; preds = %if.then2.i, %if.end.i, %_ZNK6icu_7519CollationRuleParser14skipWhiteSpaceEi.exit
  %19 = load ptr, ptr %rules.i, align 8
  %fUnion.i.i5.i9 = getelementptr inbounds i8, ptr %19, i64 8
  %20 = load i16, ptr %fUnion.i.i5.i9, align 8
  %cmp.i.i6.i10 = icmp slt i16 %20, 0
  %21 = ashr i16 %20, 5
  %shr.i.i7.i11 = sext i16 %21 to i32
  %fLength.i8.i12 = getelementptr inbounds i8, ptr %19, i64 12
  %22 = load i32, ptr %fLength.i8.i12, align 4
  %cond.i9.i13 = select i1 %cmp.i.i6.i10, i32 %22, i32 %shr.i.i7.i11
  %cmp10.i14 = icmp sgt i32 %cond.i9.i13, %call2
  br i1 %cmp10.i14, label %land.rhs.preheader.i16, label %_ZNK6icu_7519CollationRuleParser14skipWhiteSpaceEi.exit42

land.rhs.preheader.i16:                           ; preds = %if.end
  %23 = sext i32 %call2 to i64
  br label %land.rhs.i17

land.rhs.i17:                                     ; preds = %while.body.i27, %land.rhs.preheader.i16
  %indvars.iv.i18 = phi i64 [ %23, %land.rhs.preheader.i16 ], [ %indvars.iv.next.i28, %while.body.i27 ]
  %cond.i12.i19 = phi i32 [ %cond.i9.i13, %land.rhs.preheader.i16 ], [ %cond.i.i34, %while.body.i27 ]
  %24 = phi i16 [ %20, %land.rhs.preheader.i16 ], [ %31, %while.body.i27 ]
  %25 = phi ptr [ %19, %land.rhs.preheader.i16 ], [ %30, %while.body.i27 ]
  %i.addr.011.i20 = phi i32 [ %call2, %land.rhs.preheader.i16 ], [ %inc.i29, %while.body.i27 ]
  %26 = trunc i64 %indvars.iv.i18 to i32
  %cmp.i.i4.i21 = icmp ugt i32 %cond.i12.i19, %26
  br i1 %cmp.i.i4.i21, label %if.then.i.i.i36, label %_ZNK6icu_7513UnicodeString6charAtEi.exit.i22

if.then.i.i.i36:                                  ; preds = %land.rhs.i17
  %27 = and i16 %24, 2
  %tobool.not.i.i.i.i37 = icmp eq i16 %27, 0
  %fBuffer.i.i.i.i38 = getelementptr inbounds i8, ptr %25, i64 10
  %fArray.i.i.i.i39 = getelementptr inbounds i8, ptr %25, i64 24
  %28 = load ptr, ptr %fArray.i.i.i.i39, align 8
  %cond.i2.i.i.i40 = select i1 %tobool.not.i.i.i.i37, ptr %28, ptr %fBuffer.i.i.i.i38
  %arrayidx.i.i.i41 = getelementptr inbounds i16, ptr %cond.i2.i.i.i40, i64 %indvars.iv.i18
  %29 = load i16, ptr %arrayidx.i.i.i41, align 2
  br label %_ZNK6icu_7513UnicodeString6charAtEi.exit.i22

_ZNK6icu_7513UnicodeString6charAtEi.exit.i22:     ; preds = %if.then.i.i.i36, %land.rhs.i17
  %retval.0.i.i.i23 = phi i16 [ %29, %if.then.i.i.i36 ], [ -1, %land.rhs.i17 ]
  %conv.i24 = zext i16 %retval.0.i.i.i23 to i32
  %call4.i25 = tail call noundef signext i8 @_ZN6icu_7512PatternProps12isWhiteSpaceEi(i32 noundef %conv.i24)
  %tobool.not.i26 = icmp eq i8 %call4.i25, 0
  br i1 %tobool.not.i26, label %_ZNK6icu_7519CollationRuleParser14skipWhiteSpaceEi.exit42, label %while.body.i27

while.body.i27:                                   ; preds = %_ZNK6icu_7513UnicodeString6charAtEi.exit.i22
  %indvars.iv.next.i28 = add nsw i64 %indvars.iv.i18, 1
  %inc.i29 = add nsw i32 %i.addr.011.i20, 1
  %30 = load ptr, ptr %rules.i, align 8
  %fUnion.i.i.i30 = getelementptr inbounds i8, ptr %30, i64 8
  %31 = load i16, ptr %fUnion.i.i.i30, align 8
  %cmp.i.i.i31 = icmp slt i16 %31, 0
  %32 = ashr i16 %31, 5
  %shr.i.i.i32 = sext i16 %32 to i32
  %fLength.i.i33 = getelementptr inbounds i8, ptr %30, i64 12
  %33 = load i32, ptr %fLength.i.i33, align 4
  %cond.i.i34 = select i1 %cmp.i.i.i31, i32 %33, i32 %shr.i.i.i32
  %34 = sext i32 %cond.i.i34 to i64
  %cmp.i35 = icmp slt i64 %indvars.iv.next.i28, %34
  br i1 %cmp.i35, label %land.rhs.i17, label %_ZNK6icu_7519CollationRuleParser14skipWhiteSpaceEi.exit42, !llvm.loop !10

_ZNK6icu_7519CollationRuleParser14skipWhiteSpaceEi.exit42: ; preds = %_ZNK6icu_7513UnicodeString6charAtEi.exit.i22, %while.body.i27, %if.end
  %i.addr.0.lcssa.i15 = phi i32 [ %call2, %if.end ], [ %26, %_ZNK6icu_7513UnicodeString6charAtEi.exit.i22 ], [ %inc.i29, %while.body.i27 ]
  ret i32 %i.addr.0.lcssa.i15
}